target datalayout = "e-m:e-p270:32:32-p271:32:32-p272:64:64-i64:64-i128:128-f80:128-n8:16:32:64-S128"
target triple = "x86_64-pc-linux-gnu"

%"struct.Luau::Lexeme" = type { i32, %"struct.Luau::Location", i32, %union.anon }
%"struct.Luau::Location" = type { %"struct.Luau::Position", %"struct.Luau::Position" }
%"struct.Luau::Position" = type { i32, i32 }
%union.anon = type { ptr }

; Function Attrs: mustprogress nounwind uwtable
define dso_local noundef i32 @_ZNK4Luau6Lexeme13getQuoteStyleEv(ptr noundef nonnull align 8 dereferenceable(32) %0) #2 align 2 {
  %2 = alloca i32, align 4
  %3 = alloca ptr, align 8
  %4 = alloca i8, align 1
  %5 = alloca i32, align 4
  store ptr %0, ptr %3, align 8, !tbaa !22
  %6 = load ptr, ptr %3, align 8
  call void @llvm.lifetime.start.p0(i64 1, ptr %4) #18
  %7 = getelementptr inbounds nuw %"struct.Luau::Lexeme", ptr %6, i32 0, i32 3
  %8 = load ptr, ptr %7, align 8, !tbaa !34
  %9 = getelementptr inbounds nuw %"struct.Luau::Lexeme", ptr %6, i32 0, i32 2
  %10 = load i32, ptr %9, align 4, !tbaa !33
  %11 = zext i32 %10 to i64
  %12 = getelementptr inbounds nuw i8, ptr %8, i64 %11
  %13 = load i8, ptr %12, align 1, !tbaa !34
  store i8 %13, ptr %4, align 1, !tbaa !34
  %14 = load i8, ptr %4, align 1, !tbaa !34
  %15 = sext i8 %14 to i32
  %16 = icmp eq i32 %15, 39
  br i1 %16, label %17, label %18

17:                                               ; preds = %1
  store i32 0, ptr %2, align 4
  store i32 1, ptr %5, align 4
  br label %25

18:                                               ; preds = %1
  %19 = load i8, ptr %4, align 1, !tbaa !34
  %20 = sext i8 %19 to i32
  %21 = icmp eq i32 %20, 34
  br i1 %21, label %22, label %23

22:                                               ; preds = %18
  store i32 1, ptr %2, align 4
  store i32 1, ptr %5, align 4
  br label %25

23:                                               ; preds = %18
  br label %24

24:                                               ; preds = %23
  store i32 1, ptr %2, align 4
  store i32 1, ptr %5, align 4
  br label %25

25:                                               ; preds = %24, %22, %17
  call void @llvm.lifetime.end.p0(i64 1, ptr %4) #18
  %26 = load i32, ptr %2, align 4
  ret i32 %26
}